target datalayout = "e-m:e-p270:32:32-p271:32:32-p272:64:64-i64:64-i128:128-f80:128-n8:16:32:64-S128"
target triple = "x86_64-pc-linux-gnu"

%class.symbol = type { ptr }
%class.ast_manager = type { %class.reslimit, %class.small_object_allocator, %class.family_manager, %class.parray_manager, %class.dependency_manager, %class.parray_manager.23, %class.ptr_vector.26, i32, i8, %class.ast_table, %class.obj_map, %class.id_gen, %class.id_gen, ptr, ptr, ptr, ptr, ptr, i32, i8, [3 x i8], %class.u_map, ptr, i8, i8, ptr, %class.symbol, %class.obj_map.34, ptr }
%class.reslimit = type { %"struct.std::atomic", i8, i64, i64, %class.svector, %class.ptr_vector }
%"struct.std::atomic" = type { %"struct.std::__atomic_base" }
%"struct.std::__atomic_base" = type { i32 }
%class.svector = type { %class.vector }
%class.vector = type { ptr }
%class.ptr_vector = type { %class.vector.13 }
%class.vector.13 = type { ptr }
%class.small_object_allocator = type { [32 x ptr], [32 x ptr], i64 }
%class.family_manager = type { i32, %class.symbol_table, %class.svector.17 }
%class.symbol_table = type { %class.core_hashtable, %class.vector.14, %class.svector.15 }
%class.core_hashtable = type <{ ptr, i32, i32, i32, [4 x i8] }>
%class.vector.14 = type { ptr }
%class.svector.15 = type { %class.vector.16 }
%class.vector.16 = type { ptr }
%class.svector.17 = type { %class.vector.18 }
%class.vector.18 = type { ptr }
%class.parray_manager = type { ptr, ptr, %class.ptr_vector.19, %class.ptr_vector.19 }
%class.ptr_vector.19 = type { %class.vector.20 }
%class.vector.20 = type { ptr }
%class.dependency_manager = type { ptr, ptr, %class.ptr_vector.21 }
%class.ptr_vector.21 = type { %class.vector.22 }
%class.vector.22 = type { ptr }
%class.parray_manager.23 = type { ptr, ptr, %class.ptr_vector.24, %class.ptr_vector.24 }
%class.ptr_vector.24 = type { %class.vector.25 }
%class.vector.25 = type { ptr }
%class.ptr_vector.26 = type { %class.vector.27 }
%class.vector.27 = type { ptr }
%class.ast_table = type { %class.chashtable }
%class.chashtable = type { ptr, i32, i32, i32, i32, i32, i32, i32, ptr, ptr, ptr }
%class.obj_map = type { %class.core_hashtable.28 }
%class.core_hashtable.28 = type <{ ptr, i32, i32, i32, [4 x i8] }>
%class.id_gen = type { i32, %class.svector.30 }
%class.svector.30 = type { %class.vector.31 }
%class.vector.31 = type { ptr }
%class.u_map = type { %class.map }
%class.map = type { %class.table2map }
%class.table2map = type { %class.core_hashtable.32 }
%class.core_hashtable.32 = type <{ ptr, i32, i32, i32, [4 x i8] }>
%class.obj_map.34 = type { %class.core_hashtable.35 }
%class.core_hashtable.35 = type <{ ptr, i32, i32, i32, [4 x i8] }>
%class.ast = type { i32, i32, i32, i32 }
%class.decl_info = type <{ i32, i32, %class.vector.39, i8, [7 x i8] }>
%class.vector.39 = type { ptr }
%class.decl = type { %class.ast, %class.symbol, ptr }

; Function Attrs: mustprogress nounwind uwtable
define linkonce_odr hidden noundef i32 @_ZNK9decl_info13get_family_idEv(ptr noundef nonnull align 8 dereferenceable(17) %0) #4 comdat align 2 {
  %2 = alloca ptr, align 8
  store ptr %0, ptr %2, align 8, !tbaa !80
  %3 = load ptr, ptr %2, align 8
  %4 = getelementptr inbounds nuw %class.decl_info, ptr %3, i32 0, i32 0
  %5 = load i32, ptr %4, align 8, !tbaa !82
  ret i32 %5
}

; Function Attrs: mustprogress nounwind uwtable
define linkonce_odr hidden noundef i32 @_ZNK4decl13get_family_idEv(ptr noundef nonnull align 8 dereferenceable(32) %0) #4 comdat align 2 {
  %2 = alloca ptr, align 8
  store ptr %0, ptr %2, align 8, !tbaa !120
  %3 = load ptr, ptr %2, align 8
  %4 = getelementptr inbounds nuw %class.decl, ptr %3, i32 0, i32 2
  %5 = load ptr, ptr %4, align 8, !tbaa !122
  %6 = icmp eq ptr %5, null
  br i1 %6, label %7, label %8

7:                                                ; preds = %1
  br label %12

8:                                                ; preds = %1
  %9 = getelementptr inbounds nuw %class.decl, ptr %3, i32 0, i32 2
  %10 = load ptr, ptr %9, align 8, !tbaa !122
  %11 = call noundef i32 @_ZNK9decl_info13get_family_idEv(ptr noundef nonnull align 8 dereferenceable(17) %10)
  br label %12

12:                                               ; preds = %8, %7
  %13 = phi i32 [ -1, %7 ], [ %11, %8 ]
  ret i32 %13
}

; Function Attrs: mustprogress uwtable
define hidden noundef zeroext i1 @_ZNK11ast_manager16compatible_sortsEP4sortS1_(ptr noundef nonnull align 8 dereferenceable(976) %0, ptr noundef %1, ptr noundef %2) #6 align 2 {
  %4 = alloca i1, align 1
  %5 = alloca ptr, align 8
  %6 = alloca ptr, align 8
  %7 = alloca ptr, align 8
  store ptr %0, ptr %5, align 8, !tbaa !21
  store ptr %1, ptr %6, align 8, !tbaa !114
  store ptr %2, ptr %7, align 8, !tbaa !114
  %8 = load ptr, ptr %5, align 8
  %9 = load ptr, ptr %6, align 8, !tbaa !114
  %10 = load ptr, ptr %7, align 8, !tbaa !114
  %11 = icmp eq ptr %9, %10
  br i1 %11, label %12, label %13

12:                                               ; preds = %3
  store i1 true, ptr %4, align 1
  br label %28

13:                                               ; preds = %3
  %14 = getelementptr inbounds nuw %class.ast_manager, ptr %8, i32 0, i32 8
  %15 = load i8, ptr %14, align 4, !tbaa !387, !range !35, !noundef !36
  %16 = trunc i8 %15 to i1
  br i1 %16, label %17, label %27

17:                                               ; preds = %13
  %18 = load ptr, ptr %6, align 8, !tbaa !114
  %19 = call noundef i32 @_ZNK4decl13get_family_idEv(ptr noundef nonnull align 8 dereferenceable(32) %18)
  %20 = icmp eq i32 %19, 5
  br i1 %20, label %21, label %25

21:                                               ; preds = %17
  %22 = load ptr, ptr %7, align 8, !tbaa !114
  %23 = call noundef i32 @_ZNK4decl13get_family_idEv(ptr noundef nonnull align 8 dereferenceable(32) %22)
  %24 = icmp eq i32 %23, 5
  br label %25

25:                                               ; preds = %21, %17
  %26 = phi i1 [ false, %17 ], [ %24, %21 ]
  store i1 %26, ptr %4, align 1
  br label %28

27:                                               ; preds = %13
  store i1 false, ptr %4, align 1
  br label %28

28:                                               ; preds = %27, %25, %12
  %29 = load i1, ptr %4, align 1
  ret i1 %29
}