; Function Attrs: mustprogress nofree norecurse nosync nounwind willreturn memory(read, inaccessiblemem: none) uwtable
define hidden noundef zeroext i1 @_ZNK11ast_manager16compatible_sortsEP4sortS1_(ptr noundef nonnull readonly align 8 captures(none) dereferenceable(976) %0, ptr noundef readonly captures(address) %1, ptr noundef readonly captures(address) %2) local_unnamed_addr #10 align 2 {
  %4 = icmp eq ptr %1, %2
  br i1 %4, label %_ZNK4decl13get_family_idEv.exit.thread, label %5

5:                                                ; preds = %3
  %6 = getelementptr inbounds nuw i8, ptr %0, i64 716
  %7 = load i8, ptr %6, align 4, !tbaa !352, !range !47, !noundef !48
  %8 = trunc nuw i8 %7 to i1
  br i1 %8, label %9, label %_ZNK4decl13get_family_idEv.exit.thread

9:                                                ; preds = %5
  %10 = getelementptr inbounds nuw i8, ptr %1, i64 24
  %11 = load ptr, ptr %10, align 8, !tbaa !111
  %12 = icmp eq ptr %11, null
  br i1 %12, label %_ZNK4decl13get_family_idEv.exit.thread, label %_ZNK4decl13get_family_idEv.exit

_ZNK4decl13get_family_idEv.exit:                  ; preds = %9
  %13 = load i32, ptr %11, align 8, !tbaa !96
  %14 = icmp eq i32 %13, 5
  br i1 %14, label %15, label %_ZNK4decl13get_family_idEv.exit.thread

15:                                               ; preds = %_ZNK4decl13get_family_idEv.exit
  %16 = getelementptr inbounds nuw i8, ptr %2, i64 24
  %17 = load ptr, ptr %16, align 8, !tbaa !111
  %18 = icmp eq ptr %17, null
  br i1 %18, label %_ZNK4decl13get_family_idEv.exit.thread, label %19

19:                                               ; preds = %15
  %20 = load i32, ptr %17, align 8, !tbaa !96
  %21 = icmp eq i32 %20, 5
  br label %_ZNK4decl13get_family_idEv.exit.thread

_ZNK4decl13get_family_idEv.exit.thread:           ; preds = %19, %15, %9, %5, %_ZNK4decl13get_family_idEv.exit, %3
  %.0 = phi i1 [ true, %3 ], [ false, %_ZNK4decl13get_family_idEv.exit ], [ false, %5 ], [ false, %9 ], [ %21, %19 ], [ false, %15 ]
  ret i1 %.0
}